; Function Attrs: mustprogress uwtable
define hidden void @_ZN10statistics4copyERKS_(ptr noundef nonnull align 8 dereferenceable(16) %this, ptr nocapture noundef nonnull readonly align 8 dereferenceable(16) %st) local_unnamed_addr #3 align 2 {
entry:
  br label %for.cond.i

for.cond.i:                                       ; preds = %_ZN6vectorISt4pairIPKcjELb0EjE9push_backERKS3_.exit.i, %entry
  %indvars.iv.i = phi i64 [ %indvars.iv.next.i, %_ZN6vectorISt4pairIPKcjELb0EjE9push_backERKS3_.exit.i ], [ 0, %entry ]
  %0 = load ptr, ptr %st, align 8
  %cmp.i.i = icmp eq ptr %0, null
  br i1 %cmp.i.i, label %_ZNK6vectorISt4pairIPKcjELb0EjE4sizeEv.exit.i, label %if.end.i.i

if.end.i.i:                                       ; preds = %for.cond.i
  %arrayidx.i.i = getelementptr inbounds i8, ptr %0, i64 -4
  %1 = load i32, ptr %arrayidx.i.i, align 4
  br label %_ZNK6vectorISt4pairIPKcjELb0EjE4sizeEv.exit.i

_ZNK6vectorISt4pairIPKcjELb0EjE4sizeEv.exit.i:    ; preds = %if.end.i.i, %for.cond.i
  %retval.0.i.i = phi i32 [ %1, %if.end.i.i ], [ 0, %for.cond.i ]
  %2 = zext i32 %retval.0.i.i to i64
  %cmp.i = icmp ult i64 %indvars.iv.i, %2
  br i1 %cmp.i, label %for.body.i, label %_ZN6vectorISt4pairIPKcjELb0EjE6appendERKS4_.exit

for.body.i:                                       ; preds = %_ZNK6vectorISt4pairIPKcjELb0EjE4sizeEv.exit.i
  %arrayidx.i4.i = getelementptr inbounds %"struct.std::pair", ptr %0, i64 %indvars.iv.i
  %3 = load ptr, ptr %this, align 8
  %cmp.i5.i = icmp eq ptr %3, null
  br i1 %cmp.i5.i, label %if.then.i.i, label %lor.lhs.false.i.i

lor.lhs.false.i.i:                                ; preds = %for.body.i
  %arrayidx.i6.i = getelementptr inbounds i8, ptr %3, i64 -4
  %4 = load i32, ptr %arrayidx.i6.i, align 4
  %arrayidx4.i.i = getelementptr inbounds i8, ptr %3, i64 -8
  %5 = load i32, ptr %arrayidx4.i.i, align 4
  %cmp5.i.i = icmp eq i32 %4, %5
  br i1 %cmp5.i.i, label %if.then.i.i, label %_ZN6vectorISt4pairIPKcjELb0EjE9push_backERKS3_.exit.i

if.then.i.i:                                      ; preds = %lor.lhs.false.i.i, %for.body.i
  tail call void @_ZN6vectorISt4pairIPKcjELb0EjE13expand_vectorEv(ptr noundef nonnull align 8 dereferenceable(8) %this)
  %.pre.i.i = load ptr, ptr %this, align 8
  %arrayidx8.phi.trans.insert.i.i = getelementptr inbounds i8, ptr %.pre.i.i, i64 -4
  %.pre1.i.i = load i32, ptr %arrayidx8.phi.trans.insert.i.i, align 4
  br label %_ZN6vectorISt4pairIPKcjELb0EjE9push_backERKS3_.exit.i

_ZN6vectorISt4pairIPKcjELb0EjE9push_backERKS3_.exit.i: ; preds = %if.then.i.i, %lor.lhs.false.i.i
  %6 = phi i32 [ %.pre1.i.i, %if.then.i.i ], [ %4, %lor.lhs.false.i.i ]
  %7 = phi ptr [ %.pre.i.i, %if.then.i.i ], [ %3, %lor.lhs.false.i.i ]
  %idx.ext.i.i = zext i32 %6 to i64
  %add.ptr.i.i = getelementptr inbounds %"struct.std::pair", ptr %7, i64 %idx.ext.i.i
  tail call void @llvm.memcpy.p0.p0.i64(ptr noundef nonnull align 8 dereferenceable(16) %add.ptr.i.i, ptr noundef nonnull align 8 dereferenceable(16) %arrayidx.i4.i, i64 16, i1 false)
  %8 = load ptr, ptr %this, align 8
  %arrayidx10.i.i = getelementptr inbounds i8, ptr %8, i64 -4
  %9 = load i32, ptr %arrayidx10.i.i, align 4
  %inc.i.i = add i32 %9, 1
  store i32 %inc.i.i, ptr %arrayidx10.i.i, align 4
  %indvars.iv.next.i = add nuw nsw i64 %indvars.iv.i, 1
  br label %for.cond.i, !llvm.loop !4

_ZN6vectorISt4pairIPKcjELb0EjE6appendERKS4_.exit: ; preds = %_ZNK6vectorISt4pairIPKcjELb0EjE4sizeEv.exit.i
  %m_d_stats = getelementptr inbounds i8, ptr %this, i64 8
  %m_d_stats3 = getelementptr inbounds i8, ptr %st, i64 8
  br label %for.cond.i2

for.cond.i2:                                      ; preds = %_ZN6vectorISt4pairIPKcdELb0EjE9push_backERKS3_.exit.i, %_ZN6vectorISt4pairIPKcjELb0EjE6appendERKS4_.exit
  %indvars.iv.i3 = phi i64 [ %indvars.iv.next.i20, %_ZN6vectorISt4pairIPKcdELb0EjE9push_backERKS3_.exit.i ], [ 0, %_ZN6vectorISt4pairIPKcjELb0EjE6appendERKS4_.exit ]
  %10 = load ptr, ptr %m_d_stats3, align 8
  %cmp.i.i4 = icmp eq ptr %10, null
  br i1 %cmp.i.i4, label %_ZNK6vectorISt4pairIPKcdELb0EjE4sizeEv.exit.i, label %if.end.i.i5

if.end.i.i5:                                      ; preds = %for.cond.i2
  %arrayidx.i.i6 = getelementptr inbounds i8, ptr %10, i64 -4
  %11 = load i32, ptr %arrayidx.i.i6, align 4
  br label %_ZNK6vectorISt4pairIPKcdELb0EjE4sizeEv.exit.i

_ZNK6vectorISt4pairIPKcdELb0EjE4sizeEv.exit.i:    ; preds = %if.end.i.i5, %for.cond.i2
  %retval.0.i.i7 = phi i32 [ %11, %if.end.i.i5 ], [ 0, %for.cond.i2 ]
  %12 = zext i32 %retval.0.i.i7 to i64
  %cmp.i8 = icmp ult i64 %indvars.iv.i3, %12
  br i1 %cmp.i8, label %for.body.i9, label %_ZN6vectorISt4pairIPKcdELb0EjE6appendERKS4_.exit

for.body.i9:                                      ; preds = %_ZNK6vectorISt4pairIPKcdELb0EjE4sizeEv.exit.i
  %arrayidx.i4.i10 = getelementptr inbounds %"struct.std::pair.2", ptr %10, i64 %indvars.iv.i3
  %13 = load ptr, ptr %m_d_stats, align 8
  %cmp.i5.i11 = icmp eq ptr %13, null
  br i1 %cmp.i5.i11, label %if.then.i.i21, label %lor.lhs.false.i.i12

lor.lhs.false.i.i12:                              ; preds = %for.body.i9
  %arrayidx.i6.i13 = getelementptr inbounds i8, ptr %13, i64 -4
  %14 = load i32, ptr %arrayidx.i6.i13, align 4
  %arrayidx4.i.i14 = getelementptr inbounds i8, ptr %13, i64 -8
  %15 = load i32, ptr %arrayidx4.i.i14, align 4
  %cmp5.i.i15 = icmp eq i32 %14, %15
  br i1 %cmp5.i.i15, label %if.then.i.i21, label %_ZN6vectorISt4pairIPKcdELb0EjE9push_backERKS3_.exit.i

if.then.i.i21:                                    ; preds = %lor.lhs.false.i.i12, %for.body.i9
  tail call void @_ZN6vectorISt4pairIPKcdELb0EjE13expand_vectorEv(ptr noundef nonnull align 8 dereferenceable(8) %m_d_stats)
  %.pre.i.i22 = load ptr, ptr %m_d_stats, align 8
  %arrayidx8.phi.trans.insert.i.i23 = getelementptr inbounds i8, ptr %.pre.i.i22, i64 -4
  %.pre1.i.i24 = load i32, ptr %arrayidx8.phi.trans.insert.i.i23, align 4
  br label %_ZN6vectorISt4pairIPKcdELb0EjE9push_backERKS3_.exit.i

_ZN6vectorISt4pairIPKcdELb0EjE9push_backERKS3_.exit.i: ; preds = %if.then.i.i21, %lor.lhs.false.i.i12
  %16 = phi i32 [ %.pre1.i.i24, %if.then.i.i21 ], [ %14, %lor.lhs.false.i.i12 ]
  %17 = phi ptr [ %.pre.i.i22, %if.then.i.i21 ], [ %13, %lor.lhs.false.i.i12 ]
  %idx.ext.i.i16 = zext i32 %16 to i64
  %add.ptr.i.i17 = getelementptr inbounds %"struct.std::pair.2", ptr %17, i64 %idx.ext.i.i16
  tail call void @llvm.memcpy.p0.p0.i64(ptr noundef nonnull align 8 dereferenceable(16) %add.ptr.i.i17, ptr noundef nonnull align 8 dereferenceable(16) %arrayidx.i4.i10, i64 16, i1 false)
  %18 = load ptr, ptr %m_d_stats, align 8
  %arrayidx10.i.i18 = getelementptr inbounds i8, ptr %18, i64 -4
  %19 = load i32, ptr %arrayidx10.i.i18, align 4
  %inc.i.i19 = add i32 %19, 1
  store i32 %inc.i.i19, ptr %arrayidx10.i.i18, align 4
  %indvars.iv.next.i20 = add nuw nsw i64 %indvars.iv.i3, 1
  br label %for.cond.i2, !llvm.loop !6

_ZN6vectorISt4pairIPKcdELb0EjE6appendERKS4_.exit: ; preds = %_ZNK6vectorISt4pairIPKcdELb0EjE4sizeEv.exit.i
  ret void
}